; Function Attrs: mustprogress uwtable
define void @_ZN6casadi2MX3nanERKSt4pairIxxE(ptr dead_on_unwind noalias writable sret(%"class.casadi::MX") align 8 %0, ptr nocapture noundef nonnull readonly align 8 dereferenceable(16) %1) local_unnamed_addr #3 align 2 personality ptr @__gxx_personality_v0 {
  %3 = alloca %"class.casadi::Sparsity", align 8
  %4 = load i64, ptr %1, align 8
  %5 = getelementptr inbounds i8, ptr %1, i64 8
  %6 = load i64, ptr %5, align 8
  call void @llvm.lifetime.start.p0(i64 8, ptr nonnull %3)
  call void @_ZN6casadi8Sparsity5denseExx(ptr dead_on_unwind nonnull writable sret(%"class.casadi::Sparsity") align 8 %3, i64 noundef %4, i64 noundef %6), !noalias !451
  %7 = invoke noundef ptr @_ZN6casadi10ConstantMX6createERKNS_8SparsityEd(ptr noundef nonnull align 8 dereferenceable(8) %3, double noundef 0x7FF8000000000000)
          to label %.noexc.i unwind label %8, !noalias !451

.noexc.i:                                         ; preds = %2
  invoke void @_ZN6casadi2MXC1EPNS_6MXNodeEbbbb(ptr noundef nonnull align 8 dereferenceable(8) %0, ptr noundef %7, i1 noundef zeroext false, i1 noundef zeroext false, i1 noundef zeroext false, i1 noundef zeroext false)
          to label %_ZN6casadi2MX3nanExx.exit unwind label %8

8:                                                ; preds = %.noexc.i, %2
  %9 = landingpad { ptr, i32 }
          cleanup
  call void @_ZN6casadi12SharedObjectD2Ev(ptr noundef nonnull align 8 dereferenceable(8) %3) #27
  resume { ptr, i32 } %9

_ZN6casadi2MX3nanExx.exit:                        ; preds = %.noexc.i
  call void @_ZN6casadi12SharedObjectD2Ev(ptr noundef nonnull align 8 dereferenceable(8) %3) #27
  call void @llvm.lifetime.end.p0(i64 8, ptr nonnull %3)
  ret void
}